; Function Attrs: nounwind uwtable
define noundef i32 @Abc_NtkCrossCut(ptr noundef captures(none) %0) local_unnamed_addr #0 {
  %2 = alloca i32, align 4
  %3 = alloca i32, align 4
  store i32 0, ptr %2, align 4
  store i32 0, ptr %3, align 4
  %4 = getelementptr inbounds nuw i8, ptr %0, i64 32
  %5 = load ptr, ptr %4, align 8
  %6 = getelementptr i8, ptr %5, i64 4
  %.val8.i = load i32, ptr %6, align 4
  %7 = icmp sgt i32 %.val8.i, 0
  br i1 %7, label %.lr.ph.i, label %Abc_NtkCleanCopy.exit

.lr.ph.i:                                         ; preds = %1, %15
  %8 = phi ptr [ %16, %15 ], [ %5, %1 ]
  %indvars.iv.i = phi i64 [ %indvars.iv.next.i, %15 ], [ 0, %1 ]
  %9 = getelementptr i8, ptr %8, i64 8
  %.val7.val.i = load ptr, ptr %9, align 8
  %10 = getelementptr inbounds nuw ptr, ptr %.val7.val.i, i64 %indvars.iv.i
  %11 = load ptr, ptr %10, align 8
  %12 = icmp eq ptr %11, null
  br i1 %12, label %15, label %13

13:                                               ; preds = %.lr.ph.i
  %14 = getelementptr inbounds nuw i8, ptr %11, i64 64
  store ptr null, ptr %14, align 8
  %.pre.i = load ptr, ptr %4, align 8
  br label %15

15:                                               ; preds = %13, %.lr.ph.i
  %16 = phi ptr [ %.pre.i, %13 ], [ %8, %.lr.ph.i ]
  %indvars.iv.next.i = add nuw nsw i64 %indvars.iv.i, 1
  %17 = getelementptr i8, ptr %16, i64 4
  %.val.i = load i32, ptr %17, align 4
  %18 = sext i32 %.val.i to i64
  %19 = icmp slt i64 %indvars.iv.next.i, %18
  br i1 %19, label %.lr.ph.i, label %Abc_NtkCleanCopy.exit, !llvm.loop !31

Abc_NtkCleanCopy.exit:                            ; preds = %15, %1
  %.val.val.i = phi i32 [ %.val8.i, %1 ], [ %.val.i, %15 ]
  %20 = getelementptr inbounds nuw i8, ptr %0, i64 232
  %21 = load ptr, ptr %20, align 8
  %.not.i = icmp eq ptr %21, null
  br i1 %.not.i, label %22, label %Abc_NtkIncrementTravId.exit

22:                                               ; preds = %Abc_NtkCleanCopy.exit
  %23 = getelementptr inbounds nuw i8, ptr %0, i64 224
  %24 = add nsw i32 %.val.val.i, 500
  %25 = load i32, ptr %23, align 8
  %.not.i.i.i = icmp slt i32 %25, %24
  br i1 %.not.i.i.i, label %26, label %Vec_IntGrow.exit.i.i

26:                                               ; preds = %22
  %27 = sext i32 %24 to i64
  %28 = shl nsw i64 %27, 2
  %29 = tail call noalias ptr @malloc(i64 noundef %28) #30
  store ptr %29, ptr %20, align 8
  store i32 %24, ptr %23, align 8
  br label %Vec_IntGrow.exit.i.i

Vec_IntGrow.exit.i.i:                             ; preds = %26, %22
  %30 = icmp sgt i32 %.val.val.i, -500
  br i1 %30, label %.lr.ph.i.i, label %Vec_IntFill.exit.i

.lr.ph.i.i:                                       ; preds = %Vec_IntGrow.exit.i.i
  %wide.trip.count.i.i = zext nneg i32 %24 to i64
  br label %31

31:                                               ; preds = %31, %.lr.ph.i.i
  %indvars.iv.i.i = phi i64 [ 0, %.lr.ph.i.i ], [ %indvars.iv.next.i.i, %31 ]
  %32 = load ptr, ptr %20, align 8
  %33 = getelementptr inbounds nuw i32, ptr %32, i64 %indvars.iv.i.i
  store i32 0, ptr %33, align 4
  %indvars.iv.next.i.i = add nuw nsw i64 %indvars.iv.i.i, 1
  %exitcond.not.i.i = icmp eq i64 %indvars.iv.next.i.i, %wide.trip.count.i.i
  br i1 %exitcond.not.i.i, label %Vec_IntFill.exit.i, label %31, !llvm.loop !50

Vec_IntFill.exit.i:                               ; preds = %31, %Vec_IntGrow.exit.i.i
  %34 = getelementptr inbounds nuw i8, ptr %0, i64 228
  store i32 %24, ptr %34, align 4
  br label %Abc_NtkIncrementTravId.exit

Abc_NtkIncrementTravId.exit:                      ; preds = %Abc_NtkCleanCopy.exit, %Vec_IntFill.exit.i
  %35 = getelementptr inbounds nuw i8, ptr %0, i64 216
  %36 = load i32, ptr %35, align 8
  %37 = add nsw i32 %36, 1
  store i32 %37, ptr %35, align 8
  %38 = getelementptr i8, ptr %0, i64 64
  %.val11 = load ptr, ptr %38, align 8
  %39 = getelementptr i8, ptr %.val11, i64 4
  %.val.val12 = load i32, ptr %39, align 4
  %40 = icmp sgt i32 %.val.val12, 0
  br i1 %40, label %.lr.ph, label %.critedge

.lr.ph:                                           ; preds = %Abc_NtkIncrementTravId.exit, %.lr.ph
  %indvars.iv = phi i64 [ %indvars.iv.next, %.lr.ph ], [ 0, %Abc_NtkIncrementTravId.exit ]
  %.val14 = phi ptr [ %.val, %.lr.ph ], [ %.val11, %Abc_NtkIncrementTravId.exit ]
  %41 = getelementptr i8, ptr %.val14, i64 8
  %.val8.val = load ptr, ptr %41, align 8
  %42 = getelementptr inbounds nuw ptr, ptr %.val8.val, i64 %indvars.iv
  %43 = load ptr, ptr %42, align 8
  %44 = call i32 @Abc_NtkCrossCut_rec(ptr noundef %43, ptr noundef nonnull %2, ptr noundef nonnull %3)
  %45 = load i32, ptr %2, align 4
  %46 = add nsw i32 %45, -1
  store i32 %46, ptr %2, align 4
  %indvars.iv.next = add nuw nsw i64 %indvars.iv, 1
  %.val = load ptr, ptr %38, align 8
  %47 = getelementptr i8, ptr %.val, i64 4
  %.val.val = load i32, ptr %47, align 4
  %48 = sext i32 %.val.val to i64
  %49 = icmp slt i64 %indvars.iv.next, %48
  br i1 %49, label %.lr.ph, label %.critedge.loopexit, !llvm.loop !87

.critedge.loopexit:                               ; preds = %.lr.ph
  %.pre = load i32, ptr %3, align 4
  br label %.critedge

.critedge:                                        ; preds = %.critedge.loopexit, %Abc_NtkIncrementTravId.exit
  %50 = phi i32 [ %.pre, %.critedge.loopexit ], [ 0, %Abc_NtkIncrementTravId.exit ]
  %51 = sitofp i32 %50 to double
  %52 = fmul double %51, 1.000000e+02
  %53 = getelementptr i8, ptr %0, i64 140
  %.val9 = load i32, ptr %53, align 4
  %54 = sitofp i32 %.val9 to double
  %55 = fdiv double %52, %54
  %56 = tail call i32 (ptr, ...) @printf(ptr noundef nonnull dereferenceable(1) @.str.11, i32 noundef %50, double noundef %55)
  ret i32 %50
}